target datalayout = "e-m:e-p270:32:32-p271:32:32-p272:64:64-i64:64-i128:128-f80:128-n8:16:32:64-S128"
target triple = "x86_64-pc-linux-gnu"

%struct.AVFilterContext = type { ptr, ptr, ptr, ptr, ptr, i32, ptr, ptr, i32, ptr, ptr, i32, i32, ptr, ptr, ptr, ptr, i32, ptr, i32, i32 }
%struct.XMedianContext = type { ptr, ptr, i32, i32, i32, i32, float, i32, i32, i32, i32, i32, i32, [4 x i32], [4 x i32], [4 x i32], ptr, ptr, ptr, %struct.FFFrameSync, ptr }
%struct.FFFrameSync = type { ptr, ptr, i32, %struct.AVRational, i64, ptr, ptr, i32, i32, i8, i8, ptr, i32, i32, i32, i32 }
%struct.AVRational = type { i32, i32 }
%struct.AVFilterLink = type { ptr, ptr, ptr, ptr, i32, i32, i32, i32, %struct.AVRational, i32, i32, i32, %struct.AVChannelLayout, %struct.AVRational, ptr, i32, %struct.AVFilterFormatsConfig, %struct.AVFilterFormatsConfig }
%struct.AVChannelLayout = type { i32, i32, %union.anon.1, ptr }
%union.anon.1 = type { i64 }
%struct.AVFilterFormatsConfig = type { ptr, ptr, ptr, ptr, ptr }
%struct.ThreadData = type { ptr, ptr }
%struct.AVFrame = type { [8 x ptr], [8 x i32], ptr, i32, i32, i32, i32, i32, %struct.AVRational, i64, i64, %struct.AVRational, i32, ptr, i32, i32, [8 x ptr], ptr, i32, ptr, i32, i32, i32, i32, i32, i32, i32, i64, ptr, i32, ptr, ptr, i64, i64, i64, i64, ptr, %struct.AVChannelLayout, i64 }

; Function Attrs: alwaysinline nounwind willreturn memory(none) uwtable
define internal i32 @av_clip_c(i32 noundef %0, i32 noundef %1, i32 noundef %2) #9 {
  %4 = alloca i32, align 4
  %5 = alloca i32, align 4
  %6 = alloca i32, align 4
  %7 = alloca i32, align 4
  store i32 %0, ptr %5, align 4, !tbaa !37
  store i32 %1, ptr %6, align 4, !tbaa !37
  store i32 %2, ptr %7, align 4, !tbaa !37
  %8 = load i32, ptr %5, align 4, !tbaa !37
  %9 = load i32, ptr %6, align 4, !tbaa !37
  %10 = icmp slt i32 %8, %9
  br i1 %10, label %11, label %13

11:                                               ; preds = %3
  %12 = load i32, ptr %6, align 4, !tbaa !37
  store i32 %12, ptr %4, align 4
  br label %21

13:                                               ; preds = %3
  %14 = load i32, ptr %5, align 4, !tbaa !37
  %15 = load i32, ptr %7, align 4, !tbaa !37
  %16 = icmp sgt i32 %14, %15
  br i1 %16, label %17, label %19

17:                                               ; preds = %13
  %18 = load i32, ptr %7, align 4, !tbaa !37
  store i32 %18, ptr %4, align 4
  br label %21

19:                                               ; preds = %13
  %20 = load i32, ptr %5, align 4, !tbaa !37
  store i32 %20, ptr %4, align 4
  br label %21

21:                                               ; preds = %19, %17, %11
  %22 = load i32, ptr %4, align 4
  ret i32 %22
}

; Function Attrs: nounwind uwtable
define internal void @update_index(ptr noundef %0) #0 {
  %2 = alloca ptr, align 8
  store ptr %0, ptr %2, align 8, !tbaa !22
  %3 = load ptr, ptr %2, align 8, !tbaa !22
  %4 = getelementptr inbounds nuw %struct.XMedianContext, ptr %3, i32 0, i32 2
  %5 = load i32, ptr %4, align 8, !tbaa !35
  %6 = and i32 %5, 1
  %7 = icmp ne i32 %6, 0
  br i1 %7, label %8, label %21

8:                                                ; preds = %1
  %9 = load ptr, ptr %2, align 8, !tbaa !22
  %10 = getelementptr inbounds nuw %struct.XMedianContext, ptr %9, i32 0, i32 8
  %11 = load i32, ptr %10, align 8, !tbaa !36
  %12 = sitofp i32 %11 to float
  %13 = fmul nsz float %12, 2.000000e+00
  %14 = load ptr, ptr %2, align 8, !tbaa !22
  %15 = getelementptr inbounds nuw %struct.XMedianContext, ptr %14, i32 0, i32 6
  %16 = load float, ptr %15, align 8, !tbaa !46
  %17 = fmul nsz float %13, %16
  %18 = fptosi float %17 to i32
  %19 = load ptr, ptr %2, align 8, !tbaa !22
  %20 = getelementptr inbounds nuw %struct.XMedianContext, ptr %19, i32 0, i32 9
  store i32 %18, ptr %20, align 4, !tbaa !47
  br label %39

21:                                               ; preds = %1
  %22 = load ptr, ptr %2, align 8, !tbaa !22
  %23 = getelementptr inbounds nuw %struct.XMedianContext, ptr %22, i32 0, i32 8
  %24 = load i32, ptr %23, align 8, !tbaa !36
  %25 = sitofp i32 %24 to float
  %26 = fmul nsz float %25, 2.000000e+00
  %27 = load ptr, ptr %2, align 8, !tbaa !22
  %28 = getelementptr inbounds nuw %struct.XMedianContext, ptr %27, i32 0, i32 6
  %29 = load float, ptr %28, align 8, !tbaa !46
  %30 = fmul nsz float %26, %29
  %31 = fptosi float %30 to i32
  %32 = load ptr, ptr %2, align 8, !tbaa !22
  %33 = getelementptr inbounds nuw %struct.XMedianContext, ptr %32, i32 0, i32 2
  %34 = load i32, ptr %33, align 8, !tbaa !35
  %35 = sub nsw i32 %34, 1
  %36 = call i32 @av_clip_c(i32 noundef %31, i32 noundef 1, i32 noundef %35) #13
  %37 = load ptr, ptr %2, align 8, !tbaa !22
  %38 = getelementptr inbounds nuw %struct.XMedianContext, ptr %37, i32 0, i32 9
  store i32 %36, ptr %38, align 4, !tbaa !47
  br label %39

39:                                               ; preds = %21, %8
  ret void
}

; Function Attrs: nounwind uwtable
define internal i32 @tmedian_filter_frame(ptr noundef %0, ptr noundef %1) #0 {
  %3 = alloca i32, align 4
  %4 = alloca ptr, align 8
  %5 = alloca ptr, align 8
  %6 = alloca ptr, align 8
  %7 = alloca ptr, align 8
  %8 = alloca ptr, align 8
  %9 = alloca %struct.ThreadData, align 8
  %10 = alloca ptr, align 8
  %11 = alloca i32, align 4
  store ptr %0, ptr %4, align 8, !tbaa !48
  store ptr %1, ptr %5, align 8, !tbaa !95
  call void @llvm.lifetime.start.p0(i64 8, ptr %6) #11
  %12 = load ptr, ptr %4, align 8, !tbaa !48
  %13 = getelementptr inbounds nuw %struct.AVFilterLink, ptr %12, i32 0, i32 2
  %14 = load ptr, ptr %13, align 8, !tbaa !144
  store ptr %14, ptr %6, align 8, !tbaa !4
  call void @llvm.lifetime.start.p0(i64 8, ptr %7) #11
  %15 = load ptr, ptr %6, align 8, !tbaa !4
  %16 = getelementptr inbounds nuw %struct.AVFilterContext, ptr %15, i32 0, i32 7
  %17 = load ptr, ptr %16, align 8, !tbaa !135
  %18 = getelementptr inbounds ptr, ptr %17, i64 0
  %19 = load ptr, ptr %18, align 8, !tbaa !48
  store ptr %19, ptr %7, align 8, !tbaa !48
  call void @llvm.lifetime.start.p0(i64 8, ptr %8) #11
  %20 = load ptr, ptr %6, align 8, !tbaa !4
  %21 = getelementptr inbounds nuw %struct.AVFilterContext, ptr %20, i32 0, i32 9
  %22 = load ptr, ptr %21, align 8, !tbaa !9
  store ptr %22, ptr %8, align 8, !tbaa !22
  call void @llvm.lifetime.start.p0(i64 16, ptr %9) #11
  call void @llvm.lifetime.start.p0(i64 8, ptr %10) #11
  %23 = load ptr, ptr %8, align 8, !tbaa !22
  call void @update_index(ptr noundef %23)
  %24 = load ptr, ptr %8, align 8, !tbaa !22
  %25 = getelementptr inbounds nuw %struct.XMedianContext, ptr %24, i32 0, i32 3
  %26 = load i32, ptr %25, align 4, !tbaa !43
  %27 = load ptr, ptr %8, align 8, !tbaa !22
  %28 = getelementptr inbounds nuw %struct.XMedianContext, ptr %27, i32 0, i32 2
  %29 = load i32, ptr %28, align 8, !tbaa !35
  %30 = icmp slt i32 %26, %29
  br i1 %30, label %31, label %54

31:                                               ; preds = %2
  %32 = load ptr, ptr %5, align 8, !tbaa !95
  %33 = load ptr, ptr %8, align 8, !tbaa !22
  %34 = getelementptr inbounds nuw %struct.XMedianContext, ptr %33, i32 0, i32 18
  %35 = load ptr, ptr %34, align 8, !tbaa !44
  %36 = load ptr, ptr %8, align 8, !tbaa !22
  %37 = getelementptr inbounds nuw %struct.XMedianContext, ptr %36, i32 0, i32 3
  %38 = load i32, ptr %37, align 4, !tbaa !43
  %39 = sext i32 %38 to i64
  %40 = getelementptr inbounds ptr, ptr %35, i64 %39
  store ptr %32, ptr %40, align 8, !tbaa !95
  %41 = load ptr, ptr %8, align 8, !tbaa !22
  %42 = getelementptr inbounds nuw %struct.XMedianContext, ptr %41, i32 0, i32 3
  %43 = load i32, ptr %42, align 4, !tbaa !43
  %44 = add nsw i32 %43, 1
  store i32 %44, ptr %42, align 4, !tbaa !43
  %45 = load ptr, ptr %8, align 8, !tbaa !22
  %46 = getelementptr inbounds nuw %struct.XMedianContext, ptr %45, i32 0, i32 3
  %47 = load i32, ptr %46, align 4, !tbaa !43
  %48 = load ptr, ptr %8, align 8, !tbaa !22
  %49 = getelementptr inbounds nuw %struct.XMedianContext, ptr %48, i32 0, i32 2
  %50 = load i32, ptr %49, align 8, !tbaa !35
  %51 = icmp slt i32 %47, %50
  br i1 %51, label %52, label %53

52:                                               ; preds = %31
  store i32 0, ptr %3, align 4
  store i32 1, ptr %11, align 4
  br label %157

53:                                               ; preds = %31
  br label %83

54:                                               ; preds = %2
  %55 = load ptr, ptr %8, align 8, !tbaa !22
  %56 = getelementptr inbounds nuw %struct.XMedianContext, ptr %55, i32 0, i32 18
  %57 = load ptr, ptr %56, align 8, !tbaa !44
  %58 = getelementptr inbounds ptr, ptr %57, i64 0
  call void @av_frame_free(ptr noundef %58)
  %59 = load ptr, ptr %8, align 8, !tbaa !22
  %60 = getelementptr inbounds nuw %struct.XMedianContext, ptr %59, i32 0, i32 18
  %61 = load ptr, ptr %60, align 8, !tbaa !44
  %62 = getelementptr inbounds ptr, ptr %61, i64 0
  %63 = load ptr, ptr %8, align 8, !tbaa !22
  %64 = getelementptr inbounds nuw %struct.XMedianContext, ptr %63, i32 0, i32 18
  %65 = load ptr, ptr %64, align 8, !tbaa !44
  %66 = getelementptr inbounds ptr, ptr %65, i64 1
  %67 = load ptr, ptr %8, align 8, !tbaa !22
  %68 = getelementptr inbounds nuw %struct.XMedianContext, ptr %67, i32 0, i32 2
  %69 = load i32, ptr %68, align 8, !tbaa !35
  %70 = sub nsw i32 %69, 1
  %71 = sext i32 %70 to i64
  %72 = mul i64 8, %71
  call void @llvm.memmove.p0.p0.i64(ptr align 8 %62, ptr align 8 %66, i64 %72, i1 false)
  %73 = load ptr, ptr %5, align 8, !tbaa !95
  %74 = load ptr, ptr %8, align 8, !tbaa !22
  %75 = getelementptr inbounds nuw %struct.XMedianContext, ptr %74, i32 0, i32 18
  %76 = load ptr, ptr %75, align 8, !tbaa !44
  %77 = load ptr, ptr %8, align 8, !tbaa !22
  %78 = getelementptr inbounds nuw %struct.XMedianContext, ptr %77, i32 0, i32 2
  %79 = load i32, ptr %78, align 8, !tbaa !35
  %80 = sub nsw i32 %79, 1
  %81 = sext i32 %80 to i64
  %82 = getelementptr inbounds ptr, ptr %76, i64 %81
  store ptr %73, ptr %82, align 8, !tbaa !95
  br label %83

83:                                               ; preds = %54, %53
  %84 = load ptr, ptr %6, align 8, !tbaa !4
  %85 = getelementptr inbounds nuw %struct.AVFilterContext, ptr %84, i32 0, i32 17
  %86 = load i32, ptr %85, align 8, !tbaa !138
  %87 = icmp ne i32 %86, 0
  br i1 %87, label %88, label %102

88:                                               ; preds = %83
  %89 = load ptr, ptr %8, align 8, !tbaa !22
  %90 = getelementptr inbounds nuw %struct.XMedianContext, ptr %89, i32 0, i32 18
  %91 = load ptr, ptr %90, align 8, !tbaa !44
  %92 = getelementptr inbounds ptr, ptr %91, i64 0
  %93 = load ptr, ptr %92, align 8, !tbaa !95
  %94 = call ptr @av_frame_clone(ptr noundef %93)
  store ptr %94, ptr %10, align 8, !tbaa !95
  %95 = load ptr, ptr %10, align 8, !tbaa !95
  %96 = icmp ne ptr %95, null
  br i1 %96, label %98, label %97

97:                                               ; preds = %88
  store i32 -12, ptr %3, align 4
  store i32 1, ptr %11, align 4
  br label %157

98:                                               ; preds = %88
  %99 = load ptr, ptr %7, align 8, !tbaa !48
  %100 = load ptr, ptr %10, align 8, !tbaa !95
  %101 = call i32 @ff_filter_frame(ptr noundef %99, ptr noundef %100)
  store i32 %101, ptr %3, align 4
  store i32 1, ptr %11, align 4
  br label %157

102:                                              ; preds = %83
  %103 = load ptr, ptr %7, align 8, !tbaa !48
  %104 = load ptr, ptr %7, align 8, !tbaa !48
  %105 = getelementptr inbounds nuw %struct.AVFilterLink, ptr %104, i32 0, i32 6
  %106 = load i32, ptr %105, align 8, !tbaa !62
  %107 = load ptr, ptr %7, align 8, !tbaa !48
  %108 = getelementptr inbounds nuw %struct.AVFilterLink, ptr %107, i32 0, i32 7
  %109 = load i32, ptr %108, align 4, !tbaa !61
  %110 = call ptr @ff_get_video_buffer(ptr noundef %103, i32 noundef %106, i32 noundef %109)
  store ptr %110, ptr %10, align 8, !tbaa !95
  %111 = load ptr, ptr %10, align 8, !tbaa !95
  %112 = icmp ne ptr %111, null
  br i1 %112, label %114, label %113

113:                                              ; preds = %102
  store i32 -12, ptr %3, align 4
  store i32 1, ptr %11, align 4
  br label %157

114:                                              ; preds = %102
  %115 = load ptr, ptr %8, align 8, !tbaa !22
  %116 = getelementptr inbounds nuw %struct.XMedianContext, ptr %115, i32 0, i32 18
  %117 = load ptr, ptr %116, align 8, !tbaa !44
  %118 = getelementptr inbounds ptr, ptr %117, i64 0
  %119 = load ptr, ptr %118, align 8, !tbaa !95
  %120 = getelementptr inbounds nuw %struct.AVFrame, ptr %119, i32 0, i32 9
  %121 = load i64, ptr %120, align 8, !tbaa !140
  %122 = load ptr, ptr %10, align 8, !tbaa !95
  %123 = getelementptr inbounds nuw %struct.AVFrame, ptr %122, i32 0, i32 9
  store i64 %121, ptr %123, align 8, !tbaa !140
  %124 = load ptr, ptr %10, align 8, !tbaa !95
  %125 = getelementptr inbounds nuw %struct.ThreadData, ptr %9, i32 0, i32 1
  store ptr %124, ptr %125, align 8, !tbaa !94
  %126 = load ptr, ptr %8, align 8, !tbaa !22
  %127 = getelementptr inbounds nuw %struct.XMedianContext, ptr %126, i32 0, i32 18
  %128 = load ptr, ptr %127, align 8, !tbaa !44
  %129 = getelementptr inbounds nuw %struct.ThreadData, ptr %9, i32 0, i32 0
  store ptr %128, ptr %129, align 8, !tbaa !91
  %130 = load ptr, ptr %6, align 8, !tbaa !4
  %131 = load ptr, ptr %8, align 8, !tbaa !22
  %132 = getelementptr inbounds nuw %struct.XMedianContext, ptr %131, i32 0, i32 20
  %133 = load ptr, ptr %132, align 8, !tbaa !72
  %134 = load ptr, ptr %8, align 8, !tbaa !22
  %135 = getelementptr inbounds nuw %struct.XMedianContext, ptr %134, i32 0, i32 15
  %136 = getelementptr inbounds [4 x i32], ptr %135, i64 0, i64 1
  %137 = load i32, ptr %136, align 4, !tbaa !37
  %138 = load ptr, ptr %8, align 8, !tbaa !22
  %139 = getelementptr inbounds nuw %struct.XMedianContext, ptr %138, i32 0, i32 4
  %140 = load i32, ptr %139, align 8, !tbaa !71
  %141 = icmp sgt i32 %137, %140
  br i1 %141, label %142, label %146

142:                                              ; preds = %114
  %143 = load ptr, ptr %8, align 8, !tbaa !22
  %144 = getelementptr inbounds nuw %struct.XMedianContext, ptr %143, i32 0, i32 4
  %145 = load i32, ptr %144, align 8, !tbaa !71
  br label %151

146:                                              ; preds = %114
  %147 = load ptr, ptr %8, align 8, !tbaa !22
  %148 = getelementptr inbounds nuw %struct.XMedianContext, ptr %147, i32 0, i32 15
  %149 = getelementptr inbounds [4 x i32], ptr %148, i64 0, i64 1
  %150 = load i32, ptr %149, align 4, !tbaa !37
  br label %151

151:                                              ; preds = %146, %142
  %152 = phi i32 [ %145, %142 ], [ %150, %146 ]
  %153 = call i32 @ff_filter_execute(ptr noundef %130, ptr noundef %133, ptr noundef %9, ptr noundef null, i32 noundef %152)
  %154 = load ptr, ptr %7, align 8, !tbaa !48
  %155 = load ptr, ptr %10, align 8, !tbaa !95
  %156 = call i32 @ff_filter_frame(ptr noundef %154, ptr noundef %155)
  store i32 %156, ptr %3, align 4
  store i32 1, ptr %11, align 4
  br label %157

157:                                              ; preds = %151, %113, %98, %97, %52
  call void @llvm.lifetime.end.p0(i64 8, ptr %10) #11
  call void @llvm.lifetime.end.p0(i64 16, ptr %9) #11
  call void @llvm.lifetime.end.p0(i64 8, ptr %8) #11
  call void @llvm.lifetime.end.p0(i64 8, ptr %7) #11
  call void @llvm.lifetime.end.p0(i64 8, ptr %6) #11
  %158 = load i32, ptr %3, align 4
  ret i32 %158
}