; Function Attrs: nounwind uwtable
define internal i32 @tmedian_filter_frame(ptr noundef readonly captures(none) %0, ptr noundef %1) #0 {
  %3 = alloca %struct.ThreadData, align 8
  %4 = getelementptr inbounds nuw i8, ptr %0, i64 16
  %5 = load ptr, ptr %4, align 8, !tbaa !124
  %6 = getelementptr inbounds nuw i8, ptr %5, i64 56
  %7 = load ptr, ptr %6, align 8, !tbaa !115
  %8 = load ptr, ptr %7, align 8, !tbaa !51
  %9 = getelementptr inbounds nuw i8, ptr %5, i64 72
  %10 = load ptr, ptr %9, align 8, !tbaa !4
  call void @llvm.lifetime.start.p0(i64 16, ptr nonnull %3) #10
  %11 = getelementptr inbounds nuw i8, ptr %10, i64 16
  %12 = load i32, ptr %11, align 8, !tbaa !32
  %13 = and i32 %12, 1
  %.not.i = icmp eq i32 %13, 0
  %14 = getelementptr inbounds nuw i8, ptr %10, i64 40
  %15 = load i32, ptr %14, align 8, !tbaa !33
  %16 = sitofp i32 %15 to float
  %17 = fmul nsz float %16, 2.000000e+00
  %18 = getelementptr inbounds nuw i8, ptr %10, i64 32
  %19 = load float, ptr %18, align 8, !tbaa !41
  %20 = fmul nsz float %19, %17
  %21 = fptosi float %20 to i32
  br i1 %.not.i, label %22, label %update_index.exit

22:                                               ; preds = %2
  %23 = add nsw i32 %12, -1
  %24 = icmp slt i32 %21, 1
  %..i.i = tail call i32 @llvm.smin.i32(i32 %23, i32 %21)
  %.0.i.i = select i1 %24, i32 1, i32 %..i.i
  br label %update_index.exit

update_index.exit:                                ; preds = %2, %22
  %.sink.i = phi i32 [ %.0.i.i, %22 ], [ %21, %2 ]
  %25 = getelementptr inbounds nuw i8, ptr %10, i64 44
  store i32 %.sink.i, ptr %25, align 4, !tbaa !42
  %26 = getelementptr inbounds nuw i8, ptr %10, i64 20
  %27 = load i32, ptr %26, align 4, !tbaa !38
  %28 = icmp slt i32 %27, %12
  %29 = getelementptr inbounds nuw i8, ptr %10, i64 128
  %30 = load ptr, ptr %29, align 8, !tbaa !39
  br i1 %28, label %31, label %36

31:                                               ; preds = %update_index.exit
  %32 = sext i32 %27 to i64
  %33 = getelementptr inbounds ptr, ptr %30, i64 %32
  store ptr %1, ptr %33, align 8, !tbaa !85
  %34 = add nsw i32 %27, 1
  store i32 %34, ptr %26, align 4, !tbaa !38
  %35 = icmp slt i32 %34, %12
  br i1 %35, label %79, label %48

36:                                               ; preds = %update_index.exit
  tail call void @av_frame_free(ptr noundef %30) #10
  %37 = load ptr, ptr %29, align 8, !tbaa !39
  %38 = getelementptr inbounds nuw i8, ptr %37, i64 8
  %39 = load i32, ptr %11, align 8, !tbaa !32
  %40 = add nsw i32 %39, -1
  %41 = sext i32 %40 to i64
  %42 = shl nsw i64 %41, 3
  tail call void @llvm.memmove.p0.p0.i64(ptr align 8 %37, ptr nonnull align 8 %38, i64 %42, i1 false)
  %43 = load ptr, ptr %29, align 8, !tbaa !39
  %44 = load i32, ptr %11, align 8, !tbaa !32
  %45 = sext i32 %44 to i64
  %46 = getelementptr ptr, ptr %43, i64 %45
  %47 = getelementptr i8, ptr %46, i64 -8
  store ptr %1, ptr %47, align 8, !tbaa !85
  br label %48

48:                                               ; preds = %31, %36
  %49 = phi ptr [ %30, %31 ], [ %43, %36 ]
  %50 = getelementptr inbounds nuw i8, ptr %5, i64 128
  %51 = load i32, ptr %50, align 8, !tbaa !118
  %.not = icmp eq i32 %51, 0
  br i1 %.not, label %57, label %52

52:                                               ; preds = %48
  %53 = load ptr, ptr %49, align 8, !tbaa !85
  %54 = tail call ptr @av_frame_clone(ptr noundef %53) #10
  %.not46 = icmp eq ptr %54, null
  br i1 %.not46, label %79, label %55

55:                                               ; preds = %52
  %56 = tail call i32 @ff_filter_frame(ptr noundef %8, ptr noundef nonnull %54) #10
  br label %79

57:                                               ; preds = %48
  %58 = getelementptr inbounds nuw i8, ptr %8, i64 40
  %59 = load i32, ptr %58, align 8, !tbaa !54
  %60 = getelementptr inbounds nuw i8, ptr %8, i64 44
  %61 = load i32, ptr %60, align 4, !tbaa !53
  %62 = tail call ptr @ff_get_video_buffer(ptr noundef %8, i32 noundef %59, i32 noundef %61) #10
  %.not45 = icmp eq ptr %62, null
  br i1 %.not45, label %79, label %63

63:                                               ; preds = %57
  %64 = getelementptr inbounds nuw i8, ptr %10, i64 128
  %65 = load ptr, ptr %64, align 8, !tbaa !39
  %66 = load ptr, ptr %65, align 8, !tbaa !85
  %67 = getelementptr inbounds nuw i8, ptr %66, i64 136
  %68 = load i64, ptr %67, align 8, !tbaa !120
  %69 = getelementptr inbounds nuw i8, ptr %62, i64 136
  store i64 %68, ptr %69, align 8, !tbaa !120
  %70 = getelementptr inbounds nuw i8, ptr %3, i64 8
  store ptr %62, ptr %70, align 8, !tbaa !82
  store ptr %65, ptr %3, align 8, !tbaa !80
  %71 = getelementptr inbounds nuw i8, ptr %10, i64 232
  %72 = load ptr, ptr %71, align 8, !tbaa !64
  %73 = getelementptr inbounds nuw i8, ptr %10, i64 96
  %74 = load i32, ptr %73, align 4, !tbaa !67
  %75 = getelementptr inbounds nuw i8, ptr %10, i64 24
  %76 = load i32, ptr %75, align 8, !tbaa !63
  %. = tail call i32 @llvm.smin.i32(i32 %74, i32 %76)
  %77 = call i32 @ff_filter_execute(ptr noundef nonnull %5, ptr noundef %72, ptr noundef nonnull %3, ptr noundef null, i32 noundef %.) #10
  %78 = call i32 @ff_filter_frame(ptr noundef nonnull %8, ptr noundef nonnull %62) #10
  br label %79

79:                                               ; preds = %57, %52, %31, %63, %55
  %.0 = phi i32 [ %56, %55 ], [ %78, %63 ], [ 0, %31 ], [ -12, %52 ], [ -12, %57 ]
  call void @llvm.lifetime.end.p0(i64 16, ptr nonnull %3) #10
  ret i32 %.0
}